target datalayout = "e-m:e-p270:32:32-p271:32:32-p272:64:64-i64:64-i128:128-f80:128-n8:16:32:64-S128"
target triple = "x86_64-pc-linux-gnu"

; Function Attrs: nounwind uwtable
define internal ptr @c_wchar_p_from_param(ptr noundef %0, ptr noundef %1, ptr noundef %2, i64 noundef %3, ptr noundef %4) #0 {
  %6 = alloca ptr, align 8
  %7 = alloca ptr, align 8
  %8 = alloca ptr, align 8
  %9 = alloca i64, align 8
  %10 = alloca ptr, align 8
  %11 = alloca ptr, align 8
  %12 = alloca [1 x ptr], align 8
  %13 = alloca ptr, align 8
  store ptr %0, ptr %6, align 8, !tbaa !7
  store ptr %1, ptr %7, align 8, !tbaa !50
  store ptr %2, ptr %8, align 8, !tbaa !21
  store i64 %3, ptr %9, align 8, !tbaa !23
  store ptr %4, ptr %10, align 8, !tbaa !7
  call void @llvm.lifetime.start.p0(i64 8, ptr %11) #9
  store ptr null, ptr %11, align 8, !tbaa !7
  call void @llvm.lifetime.start.p0(i64 8, ptr %12) #9
  call void @llvm.lifetime.start.p0(i64 8, ptr %13) #9
  %14 = load ptr, ptr %10, align 8, !tbaa !7
  %15 = icmp eq ptr %14, null
  br i1 %15, label %16, label %27

16:                                               ; preds = %5
  %17 = load i64, ptr %9, align 8, !tbaa !23
  %18 = icmp sle i64 1, %17
  br i1 %18, label %19, label %27

19:                                               ; preds = %16
  %20 = load i64, ptr %9, align 8, !tbaa !23
  %21 = icmp sle i64 %20, 1
  br i1 %21, label %22, label %27

22:                                               ; preds = %19
  %23 = load ptr, ptr %8, align 8, !tbaa !21
  %24 = icmp ne ptr %23, null
  br i1 %24, label %25, label %27

25:                                               ; preds = %22
  %26 = load ptr, ptr %8, align 8, !tbaa !21
  br label %33

27:                                               ; preds = %22, %19, %16, %5
  %28 = load ptr, ptr %8, align 8, !tbaa !21
  %29 = load i64, ptr %9, align 8, !tbaa !23
  %30 = load ptr, ptr %10, align 8, !tbaa !7
  %31 = getelementptr inbounds [1 x ptr], ptr %12, i64 0, i64 0
  %32 = call ptr @_PyArg_UnpackKeywords(ptr noundef %28, i64 noundef %29, ptr noundef null, ptr noundef %30, ptr noundef @c_wchar_p_from_param._parser, i32 noundef 1, i32 noundef 1, i32 noundef 0, i32 noundef 0, ptr noundef %31)
  br label %33

33:                                               ; preds = %27, %25
  %34 = phi ptr [ %26, %25 ], [ %32, %27 ]
  store ptr %34, ptr %8, align 8, !tbaa !21
  %35 = load ptr, ptr %8, align 8, !tbaa !21
  %36 = icmp ne ptr %35, null
  br i1 %36, label %38, label %37

37:                                               ; preds = %33
  br label %46

38:                                               ; preds = %33
  %39 = load ptr, ptr %8, align 8, !tbaa !21
  %40 = getelementptr ptr, ptr %39, i64 0
  %41 = load ptr, ptr %40, align 8, !tbaa !7
  store ptr %41, ptr %13, align 8, !tbaa !7
  %42 = load ptr, ptr %6, align 8, !tbaa !7
  %43 = load ptr, ptr %7, align 8, !tbaa !50
  %44 = load ptr, ptr %13, align 8, !tbaa !7
  %45 = call ptr @c_wchar_p_from_param_impl(ptr noundef %42, ptr noundef %43, ptr noundef %44)
  store ptr %45, ptr %11, align 8, !tbaa !7
  br label %46

46:                                               ; preds = %38, %37
  %47 = load ptr, ptr %11, align 8, !tbaa !7
  call void @llvm.lifetime.end.p0(i64 8, ptr %13) #9
  call void @llvm.lifetime.end.p0(i64 8, ptr %12) #9
  call void @llvm.lifetime.end.p0(i64 8, ptr %11) #9
  ret ptr %47
}